; ModuleID = '6/1277.cpp'
source_filename = "6/1277.cpp"
target datalayout = "e-m:e-p270:32:32-p271:32:32-p272:64:64-i64:64-f80:128-n8:16:32:64-S128"
target triple = "x86_64-pc-linux-gnu"

%"class.std::ios_base::Init" = type { i8 }
%"class.std::basic_istream" = type { i32 (...)**, i64, %"class.std::basic_ios" }
%"class.std::basic_ios" = type { %"class.std::ios_base", %"class.std::basic_ostream"*, i8, i8, %"class.std::basic_streambuf"*, %"class.std::ctype"*, %"class.std::num_put"*, %"class.std::num_get"* }
%"class.std::ios_base" = type { i32 (...)**, i64, i64, i32, i32, i32, %"struct.std::ios_base::_Callback_list"*, %"struct.std::ios_base::_Words", [8 x %"struct.std::ios_base::_Words"], i32, %"struct.std::ios_base::_Words"*, %"class.std::locale" }
%"struct.std::ios_base::_Callback_list" = type { %"struct.std::ios_base::_Callback_list"*, void (i32, %"class.std::ios_base"*, i32)*, i32, i32 }
%"struct.std::ios_base::_Words" = type { i8*, i64 }
%"class.std::locale" = type { %"class.std::locale::_Impl"* }
%"class.std::locale::_Impl" = type { i32, %"class.std::locale::facet"**, i64, %"class.std::locale::facet"**, i8** }
%"class.std::locale::facet" = type <{ i32 (...)**, i32, [4 x i8] }>
%"class.std::basic_ostream" = type { i32 (...)**, %"class.std::basic_ios" }
%"class.std::basic_streambuf" = type { i32 (...)**, i8*, i8*, i8*, i8*, i8*, i8*, %"class.std::locale" }
%"class.std::ctype" = type <{ %"class.std::locale::facet.base", [4 x i8], %struct.__locale_struct*, i8, [7 x i8], i32*, i32*, i16*, i8, [256 x i8], [256 x i8], i8, [6 x i8] }>
%"class.std::locale::facet.base" = type <{ i32 (...)**, i32 }>
%struct.__locale_struct = type { [13 x %struct.__locale_data*], i16*, i32*, i32*, [13 x i8*] }
%struct.__locale_data = type opaque
%"class.std::num_put" = type { %"class.std::locale::facet.base", [4 x i8] }
%"class.std::num_get" = type { %"class.std::locale::facet.base", [4 x i8] }

@_ZStL8__ioinit = internal global %"class.std::ios_base::Init" zeroinitializer, align 1
@__dso_handle = external hidden global i8
@_ZSt3cin = external dso_local global %"class.std::basic_istream", align 8
@_ZSt4cout = external dso_local global %"class.std::basic_ostream", align 8
@llvm.global_ctors = appending global [1 x { i32, void ()*, i8* }] [{ i32, void ()*, i8* } { i32 65535, void ()* @_GLOBAL__sub_I_1277.cpp, i8* null }]

; Function Attrs: noinline uwtable
define internal void @__cxx_global_var_init() #0 section ".text.startup" {
  call void @_ZNSt8ios_base4InitC1Ev(%"class.std::ios_base::Init"* @_ZStL8__ioinit)
  %1 = call i32 @__cxa_atexit(void (i8*)* bitcast (void (%"class.std::ios_base::Init"*)* @_ZNSt8ios_base4InitD1Ev to void (i8*)*), i8* getelementptr inbounds (%"class.std::ios_base::Init", %"class.std::ios_base::Init"* @_ZStL8__ioinit, i32 0, i32 0), i8* @__dso_handle) #3
  ret void
}

declare dso_local void @_ZNSt8ios_base4InitC1Ev(%"class.std::ios_base::Init"*) unnamed_addr #1

; Function Attrs: nounwind
declare dso_local void @_ZNSt8ios_base4InitD1Ev(%"class.std::ios_base::Init"*) unnamed_addr #2

; Function Attrs: nounwind
declare dso_local i32 @__cxa_atexit(void (i8*)*, i8*, i8*) #3

; Function Attrs: noinline norecurse uwtable
define dso_local i32 @main() #4 {
  %1 = alloca i32, align 4
  %2 = alloca i32, align 4
  %3 = alloca i32, align 4
  %4 = alloca i32, align 4
  %5 = alloca [100 x [100 x i32]], align 16
  %6 = alloca i32, align 4
  %7 = alloca i32, align 4
  %8 = alloca i32, align 4
  %9 = alloca i32, align 4
  %10 = alloca i32, align 4
  %11 = alloca i32, align 4
  store i32 0, i32* %1, align 4
  %12 = call dereferenceable(280) %"class.std::basic_istream"* @_ZNSirsERi(%"class.std::basic_istream"* @_ZSt3cin, i32* dereferenceable(4) %2)
  store i32 1, i32* %11, align 4
  br label %13

13:                                               ; preds = %87, %0
  %14 = load i32, i32* %11, align 4
  %15 = load i32, i32* %2, align 4
  %16 = icmp sle i32 %14, %15
  br i1 %16, label %17, label %90

17:                                               ; preds = %13
  %18 = call dereferenceable(280) %"class.std::basic_istream"* @_ZNSirsERi(%"class.std::basic_istream"* @_ZSt3cin, i32* dereferenceable(4) %3)
  %19 = call dereferenceable(280) %"class.std::basic_istream"* @_ZNSirsERi(%"class.std::basic_istream"* %18, i32* dereferenceable(4) %4)
  store i32 0, i32* %7, align 4
  store i32 0, i32* %8, align 4
  store i32 1, i32* %9, align 4
  br label %20

20:                                               ; preds = %50, %17
  %21 = load i32, i32* %9, align 4
  %22 = load i32, i32* %3, align 4
  %23 = icmp sle i32 %21, %22
  br i1 %23, label %24, label %53

24:                                               ; preds = %20
  store i32 1, i32* %10, align 4
  br label %25

25:                                               ; preds = %46, %24
  %26 = load i32, i32* %10, align 4
  %27 = load i32, i32* %4, align 4
  %28 = icmp sle i32 %26, %27
  br i1 %28, label %29, label %49

29:                                               ; preds = %25
  %30 = load i32, i32* %9, align 4
  %31 = sext i32 %30 to i64
  %32 = getelementptr inbounds [100 x [100 x i32]], [100 x [100 x i32]]* %5, i64 0, i64 %31
  %33 = load i32, i32* %10, align 4
  %34 = sext i32 %33 to i64
  %35 = getelementptr inbounds [100 x i32], [100 x i32]* %32, i64 0, i64 %34
  %36 = call dereferenceable(280) %"class.std::basic_istream"* @_ZNSirsERi(%"class.std::basic_istream"* @_ZSt3cin, i32* dereferenceable(4) %35)
  %37 = load i32, i32* %7, align 4
  %38 = load i32, i32* %9, align 4
  %39 = sext i32 %38 to i64
  %40 = getelementptr inbounds [100 x [100 x i32]], [100 x [100 x i32]]* %5, i64 0, i64 %39
  %41 = load i32, i32* %10, align 4
  %42 = sext i32 %41 to i64
  %43 = getelementptr inbounds [100 x i32], [100 x i32]* %40, i64 0, i64 %42
  %44 = load i32, i32* %43, align 4
  %45 = add nsw i32 %37, %44
  store i32 %45, i32* %7, align 4
  br label %46

46:                                               ; preds = %29
  %47 = load i32, i32* %10, align 4
  %48 = add nsw i32 %47, 1
  store i32 %48, i32* %10, align 4
  br label %25

49:                                               ; preds = %25
  br label %50

50:                                               ; preds = %49
  %51 = load i32, i32* %9, align 4
  %52 = add nsw i32 %51, 1
  store i32 %52, i32* %9, align 4
  br label %20

53:                                               ; preds = %20
  store i32 2, i32* %9, align 4
  br label %54

54:                                               ; preds = %77, %53
  %55 = load i32, i32* %9, align 4
  %56 = load i32, i32* %3, align 4
  %57 = icmp slt i32 %55, %56
  br i1 %57, label %58, label %80

58:                                               ; preds = %54
  store i32 2, i32* %10, align 4
  br label %59

59:                                               ; preds = %73, %58
  %60 = load i32, i32* %10, align 4
  %61 = load i32, i32* %4, align 4
  %62 = icmp slt i32 %60, %61
  br i1 %62, label %63, label %76

63:                                               ; preds = %59
  %64 = load i32, i32* %8, align 4
  %65 = load i32, i32* %9, align 4
  %66 = sext i32 %65 to i64
  %67 = getelementptr inbounds [100 x [100 x i32]], [100 x [100 x i32]]* %5, i64 0, i64 %66
  %68 = load i32, i32* %10, align 4
  %69 = sext i32 %68 to i64
  %70 = getelementptr inbounds [100 x i32], [100 x i32]* %67, i64 0, i64 %69
  %71 = load i32, i32* %70, align 4
  %72 = add nsw i32 %64, %71
  store i32 %72, i32* %8, align 4
  br label %73

73:                                               ; preds = %63
  %74 = load i32, i32* %10, align 4
  %75 = add nsw i32 %74, 1
  store i32 %75, i32* %10, align 4
  br label %59

76:                                               ; preds = %59
  br label %77

77:                                               ; preds = %76
  %78 = load i32, i32* %9, align 4
  %79 = add nsw i32 %78, 1
  store i32 %79, i32* %9, align 4
  br label %54

80:                                               ; preds = %54
  %81 = load i32, i32* %7, align 4
  %82 = load i32, i32* %8, align 4
  %83 = sub nsw i32 %81, %82
  store i32 %83, i32* %6, align 4
  %84 = load i32, i32* %6, align 4
  %85 = call dereferenceable(272) %"class.std::basic_ostream"* @_ZNSolsEi(%"class.std::basic_ostream"* @_ZSt4cout, i32 %84)
  %86 = call dereferenceable(272) %"class.std::basic_ostream"* @_ZNSolsEPFRSoS_E(%"class.std::basic_ostream"* %85, %"class.std::basic_ostream"* (%"class.std::basic_ostream"*)* @_ZSt4endlIcSt11char_traitsIcEERSt13basic_ostreamIT_T0_ES6_)
  br label %87

87:                                               ; preds = %80
  %88 = load i32, i32* %11, align 4
  %89 = add nsw i32 %88, 1
  store i32 %89, i32* %11, align 4
  br label %13

90:                                               ; preds = %13
  ret i32 0
}

declare dso_local dereferenceable(280) %"class.std::basic_istream"* @_ZNSirsERi(%"class.std::basic_istream"*, i32* dereferenceable(4)) #1

declare dso_local dereferenceable(272) %"class.std::basic_ostream"* @_ZNSolsEi(%"class.std::basic_ostream"*, i32) #1

declare dso_local dereferenceable(272) %"class.std::basic_ostream"* @_ZNSolsEPFRSoS_E(%"class.std::basic_ostream"*, %"class.std::basic_ostream"* (%"class.std::basic_ostream"*)*) #1

declare dso_local dereferenceable(272) %"class.std::basic_ostream"* @_ZSt4endlIcSt11char_traitsIcEERSt13basic_ostreamIT_T0_ES6_(%"class.std::basic_ostream"* dereferenceable(272)) #1

; Function Attrs: noinline uwtable
define internal void @_GLOBAL__sub_I_1277.cpp() #0 section ".text.startup" {
  call void @__cxx_global_var_init()
  ret void
}


!llvm.module.flags = !{!0}
!llvm.ident = !{!1}

!0 = !{i32 1, !"wchar_size", i32 4}
!1 = !{!"clang version 10.0.0-4ubuntu1 "}
